target datalayout = "e-m:e-p270:32:32-p271:32:32-p272:64:64-i64:64-i128:128-f80:128-n8:16:32:64-S128"
target triple = "x86_64-pc-linux-gnu"

%struct.AVRational = type { i32, i32 }
%struct.AVCodecContext = type { ptr, i32, i32, ptr, i32, i32, ptr, ptr, ptr, i64, i32, i32, ptr, i32, %struct.AVRational, %struct.AVRational, %struct.AVRational, i32, i32, i32, i32, i32, %struct.AVRational, i32, i32, i32, i32, i32, i32, i32, i32, i32, i32, i32, ptr, ptr, i32, float, float, float, float, float, float, float, float, float, i32, i32, i32, i32, i32, i32, i32, i32, i32, i32, i32, i32, ptr, ptr, ptr, i32, i32, i32, i32, i32, i32, i32, i32, i32, i32, %struct.AVChannelLayout, i32, i32, i32, i32, i32, i32, i32, i32, ptr, i32, i32, i32, float, float, i32, i32, i32, i32, i32, ptr, i64, i64, float, float, i32, i32, ptr, ptr, i32, i32, i32, i32, i32, ptr, ptr, ptr, ptr, i32, i32, [8 x i64], i32, i32, i32, i32, i32, i32, i32, ptr, ptr, i32, i32, i32, i32, i32, i32, i32, i32, i32, i32, ptr, ptr, i32, i32, ptr, ptr, ptr, ptr, i32, i32, i64, i32, i32, i64, ptr, i64, ptr, i32, ptr, i32 }
%struct.AVChannelLayout = type { i32, i32, %union.anon, ptr }
%union.anon = type { i64 }
%struct.AVCodecInternal = type { i32, i32, i32, ptr, ptr, ptr, ptr, ptr, ptr, ptr, i32, ptr, ptr, ptr, i32, i32, ptr, i32, ptr, ptr, i32, i32 }
%struct.AVFrame = type { [8 x ptr], [8 x i32], ptr, i32, i32, i32, i32, i32, %struct.AVRational, i64, i64, %struct.AVRational, i32, ptr, i32, i32, [8 x ptr], ptr, i32, ptr, i32, i32, i32, i32, i32, i32, i32, i64, ptr, i32, ptr, ptr, i64, i64, i64, i64, ptr, %struct.AVChannelLayout, i64 }

@.str = private unnamed_addr constant [30 x i8] c"Assertion %s failed at %s:%d\0A\00", align 1
@.str.2 = private unnamed_addr constant [20 x i8] c"libavcodec/decode.c\00", align 1
@.str.44 = private unnamed_addr constant [2 x i8] c"0\00", align 1
@.str.49 = private unnamed_addr constant [76 x i8] c"An invalid frame was output by a decoder. This is a bug, please report it.\0A\00", align 1
@.str.50 = private unnamed_addr constant [116 x i8] c"Invalid cropping information set by a decoder: %zu/%zu/%zu/%zu (frame size %dx%d). This is a bug, please report it\0A\00", align 1

; Function Attrs: nounwind uwtable
define internal i32 @apply_cropping(ptr noundef %0, ptr noundef %1) #0 {
  %3 = alloca i32, align 4
  %4 = alloca ptr, align 8
  %5 = alloca ptr, align 8
  store ptr %0, ptr %4, align 8, !tbaa !4
  store ptr %1, ptr %5, align 8, !tbaa !51
  %6 = load ptr, ptr %5, align 8, !tbaa !51
  %7 = getelementptr inbounds nuw %struct.AVFrame, ptr %6, i32 0, i32 34
  %8 = load i64, ptr %7, align 8, !tbaa !112
  %9 = load ptr, ptr %5, align 8, !tbaa !51
  %10 = getelementptr inbounds nuw %struct.AVFrame, ptr %9, i32 0, i32 35
  %11 = load i64, ptr %10, align 8, !tbaa !113
  %12 = sub i64 2147483647, %11
  %13 = icmp uge i64 %8, %12
  br i1 %13, label %49, label %14

14:                                               ; preds = %2
  %15 = load ptr, ptr %5, align 8, !tbaa !51
  %16 = getelementptr inbounds nuw %struct.AVFrame, ptr %15, i32 0, i32 32
  %17 = load i64, ptr %16, align 8, !tbaa !114
  %18 = load ptr, ptr %5, align 8, !tbaa !51
  %19 = getelementptr inbounds nuw %struct.AVFrame, ptr %18, i32 0, i32 33
  %20 = load i64, ptr %19, align 8, !tbaa !115
  %21 = sub i64 2147483647, %20
  %22 = icmp uge i64 %17, %21
  br i1 %22, label %49, label %23

23:                                               ; preds = %14
  %24 = load ptr, ptr %5, align 8, !tbaa !51
  %25 = getelementptr inbounds nuw %struct.AVFrame, ptr %24, i32 0, i32 34
  %26 = load i64, ptr %25, align 8, !tbaa !112
  %27 = load ptr, ptr %5, align 8, !tbaa !51
  %28 = getelementptr inbounds nuw %struct.AVFrame, ptr %27, i32 0, i32 35
  %29 = load i64, ptr %28, align 8, !tbaa !113
  %30 = add i64 %26, %29
  %31 = load ptr, ptr %5, align 8, !tbaa !51
  %32 = getelementptr inbounds nuw %struct.AVFrame, ptr %31, i32 0, i32 3
  %33 = load i32, ptr %32, align 8, !tbaa !99
  %34 = sext i32 %33 to i64
  %35 = icmp uge i64 %30, %34
  br i1 %35, label %49, label %36

36:                                               ; preds = %23
  %37 = load ptr, ptr %5, align 8, !tbaa !51
  %38 = getelementptr inbounds nuw %struct.AVFrame, ptr %37, i32 0, i32 32
  %39 = load i64, ptr %38, align 8, !tbaa !114
  %40 = load ptr, ptr %5, align 8, !tbaa !51
  %41 = getelementptr inbounds nuw %struct.AVFrame, ptr %40, i32 0, i32 33
  %42 = load i64, ptr %41, align 8, !tbaa !115
  %43 = add i64 %39, %42
  %44 = load ptr, ptr %5, align 8, !tbaa !51
  %45 = getelementptr inbounds nuw %struct.AVFrame, ptr %44, i32 0, i32 4
  %46 = load i32, ptr %45, align 4, !tbaa !101
  %47 = sext i32 %46 to i64
  %48 = icmp uge i64 %43, %47
  br i1 %48, label %49, label %77

49:                                               ; preds = %36, %23, %14, %2
  %50 = load ptr, ptr %4, align 8, !tbaa !4
  %51 = load ptr, ptr %5, align 8, !tbaa !51
  %52 = getelementptr inbounds nuw %struct.AVFrame, ptr %51, i32 0, i32 34
  %53 = load i64, ptr %52, align 8, !tbaa !112
  %54 = load ptr, ptr %5, align 8, !tbaa !51
  %55 = getelementptr inbounds nuw %struct.AVFrame, ptr %54, i32 0, i32 35
  %56 = load i64, ptr %55, align 8, !tbaa !113
  %57 = load ptr, ptr %5, align 8, !tbaa !51
  %58 = getelementptr inbounds nuw %struct.AVFrame, ptr %57, i32 0, i32 32
  %59 = load i64, ptr %58, align 8, !tbaa !114
  %60 = load ptr, ptr %5, align 8, !tbaa !51
  %61 = getelementptr inbounds nuw %struct.AVFrame, ptr %60, i32 0, i32 33
  %62 = load i64, ptr %61, align 8, !tbaa !115
  %63 = load ptr, ptr %5, align 8, !tbaa !51
  %64 = getelementptr inbounds nuw %struct.AVFrame, ptr %63, i32 0, i32 3
  %65 = load i32, ptr %64, align 8, !tbaa !99
  %66 = load ptr, ptr %5, align 8, !tbaa !51
  %67 = getelementptr inbounds nuw %struct.AVFrame, ptr %66, i32 0, i32 4
  %68 = load i32, ptr %67, align 4, !tbaa !101
  call void (ptr, i32, ptr, ...) @av_log(ptr noundef %50, i32 noundef 24, ptr noundef @.str.50, i64 noundef %53, i64 noundef %56, i64 noundef %59, i64 noundef %62, i32 noundef %65, i32 noundef %68)
  %69 = load ptr, ptr %5, align 8, !tbaa !51
  %70 = getelementptr inbounds nuw %struct.AVFrame, ptr %69, i32 0, i32 34
  store i64 0, ptr %70, align 8, !tbaa !112
  %71 = load ptr, ptr %5, align 8, !tbaa !51
  %72 = getelementptr inbounds nuw %struct.AVFrame, ptr %71, i32 0, i32 35
  store i64 0, ptr %72, align 8, !tbaa !113
  %73 = load ptr, ptr %5, align 8, !tbaa !51
  %74 = getelementptr inbounds nuw %struct.AVFrame, ptr %73, i32 0, i32 32
  store i64 0, ptr %74, align 8, !tbaa !114
  %75 = load ptr, ptr %5, align 8, !tbaa !51
  %76 = getelementptr inbounds nuw %struct.AVFrame, ptr %75, i32 0, i32 33
  store i64 0, ptr %76, align 8, !tbaa !115
  store i32 0, ptr %3, align 4
  br label %92

77:                                               ; preds = %36
  %78 = load ptr, ptr %4, align 8, !tbaa !4
  %79 = getelementptr inbounds nuw %struct.AVCodecContext, ptr %78, i32 0, i32 142
  %80 = load i32, ptr %79, align 8, !tbaa !116
  %81 = icmp ne i32 %80, 0
  br i1 %81, label %83, label %82

82:                                               ; preds = %77
  store i32 0, ptr %3, align 4
  br label %92

83:                                               ; preds = %77
  %84 = load ptr, ptr %5, align 8, !tbaa !51
  %85 = load ptr, ptr %4, align 8, !tbaa !4
  %86 = getelementptr inbounds nuw %struct.AVCodecContext, ptr %85, i32 0, i32 10
  %87 = load i32, ptr %86, align 8, !tbaa !117
  %88 = and i32 %87, 1
  %89 = icmp ne i32 %88, 0
  %90 = select i1 %89, i32 1, i32 0
  %91 = call i32 @av_frame_apply_cropping(ptr noundef %84, i32 noundef %90)
  store i32 %91, ptr %3, align 4
  br label %92

92:                                               ; preds = %83, %82, %49
  %93 = load i32, ptr %3, align 4
  ret i32 %93
}

; Function Attrs: nounwind uwtable
define internal i32 @frame_validate(ptr noundef %0, ptr noundef %1) #0 {
  %3 = alloca i32, align 4
  %4 = alloca ptr, align 8
  %5 = alloca ptr, align 8
  store ptr %0, ptr %4, align 8, !tbaa !4
  store ptr %1, ptr %5, align 8, !tbaa !51
  %6 = load ptr, ptr %5, align 8, !tbaa !51
  %7 = getelementptr inbounds nuw %struct.AVFrame, ptr %6, i32 0, i32 16
  %8 = getelementptr inbounds [8 x ptr], ptr %7, i64 0, i64 0
  %9 = load ptr, ptr %8, align 8, !tbaa !54
  %10 = icmp ne ptr %9, null
  br i1 %10, label %11, label %16

11:                                               ; preds = %2
  %12 = load ptr, ptr %5, align 8, !tbaa !51
  %13 = getelementptr inbounds nuw %struct.AVFrame, ptr %12, i32 0, i32 6
  %14 = load i32, ptr %13, align 4, !tbaa !84
  %15 = icmp slt i32 %14, 0
  br i1 %15, label %16, label %17

16:                                               ; preds = %11, %2
  br label %49

17:                                               ; preds = %11
  %18 = load ptr, ptr %4, align 8, !tbaa !4
  %19 = getelementptr inbounds nuw %struct.AVCodecContext, ptr %18, i32 0, i32 2
  %20 = load i32, ptr %19, align 4, !tbaa !98
  switch i32 %20, label %45 [
    i32 0, label %21
    i32 1, label %33
  ]

21:                                               ; preds = %17
  %22 = load ptr, ptr %5, align 8, !tbaa !51
  %23 = getelementptr inbounds nuw %struct.AVFrame, ptr %22, i32 0, i32 3
  %24 = load i32, ptr %23, align 8, !tbaa !99
  %25 = icmp sle i32 %24, 0
  br i1 %25, label %31, label %26

26:                                               ; preds = %21
  %27 = load ptr, ptr %5, align 8, !tbaa !51
  %28 = getelementptr inbounds nuw %struct.AVFrame, ptr %27, i32 0, i32 4
  %29 = load i32, ptr %28, align 4, !tbaa !101
  %30 = icmp sle i32 %29, 0
  br i1 %30, label %31, label %32

31:                                               ; preds = %26, %21
  br label %49

32:                                               ; preds = %26
  br label %48

33:                                               ; preds = %17
  %34 = load ptr, ptr %5, align 8, !tbaa !51
  %35 = getelementptr inbounds nuw %struct.AVFrame, ptr %34, i32 0, i32 37
  %36 = call i32 @av_channel_layout_check(ptr noundef %35)
  %37 = icmp ne i32 %36, 0
  br i1 %37, label %38, label %43

38:                                               ; preds = %33
  %39 = load ptr, ptr %5, align 8, !tbaa !51
  %40 = getelementptr inbounds nuw %struct.AVFrame, ptr %39, i32 0, i32 15
  %41 = load i32, ptr %40, align 4, !tbaa !111
  %42 = icmp sle i32 %41, 0
  br i1 %42, label %43, label %44

43:                                               ; preds = %38, %33
  br label %49

44:                                               ; preds = %38
  br label %48

45:                                               ; preds = %17
  br label %46

46:                                               ; preds = %45
  call void (ptr, i32, ptr, ...) @av_log(ptr noundef null, i32 noundef 0, ptr noundef @.str, ptr noundef @.str.44, ptr noundef @.str.2, i32 noundef 781)
  call void @abort() #12
  unreachable

47:                                               ; No predecessors!
  br label %48

48:                                               ; preds = %47, %44, %32
  store i32 0, ptr %3, align 4
  br label %51

49:                                               ; preds = %43, %31, %16
  %50 = load ptr, ptr %4, align 8, !tbaa !4
  call void (ptr, i32, ptr, ...) @av_log(ptr noundef %50, i32 noundef 16, ptr noundef @.str.49)
  store i32 -558323010, ptr %3, align 4
  br label %51

51:                                               ; preds = %49, %48
  %52 = load i32, ptr %3, align 4
  ret i32 %52
}

; Function Attrs: nounwind uwtable
define i32 @ff_decode_receive_frame(ptr noundef %0, ptr noundef %1) #0 {
  %3 = alloca i32, align 4
  %4 = alloca ptr, align 8
  %5 = alloca ptr, align 8
  %6 = alloca ptr, align 8
  %7 = alloca i32, align 4
  %8 = alloca i32, align 4
  store ptr %0, ptr %4, align 8, !tbaa !4
  store ptr %1, ptr %5, align 8, !tbaa !51
  call void @llvm.lifetime.start.p0(i64 8, ptr %6) #11
  %9 = load ptr, ptr %4, align 8, !tbaa !4
  %10 = getelementptr inbounds nuw %struct.AVCodecContext, ptr %9, i32 0, i32 7
  %11 = load ptr, ptr %10, align 8, !tbaa !11
  store ptr %11, ptr %6, align 8, !tbaa !31
  call void @llvm.lifetime.start.p0(i64 4, ptr %7) #11
  %12 = load ptr, ptr %6, align 8, !tbaa !31
  %13 = getelementptr inbounds nuw %struct.AVCodecInternal, ptr %12, i32 0, i32 19
  %14 = load ptr, ptr %13, align 8, !tbaa !96
  %15 = getelementptr inbounds nuw %struct.AVFrame, ptr %14, i32 0, i32 16
  %16 = getelementptr inbounds [8 x ptr], ptr %15, i64 0, i64 0
  %17 = load ptr, ptr %16, align 8, !tbaa !54
  %18 = icmp ne ptr %17, null
  br i1 %18, label %19, label %24

19:                                               ; preds = %2
  %20 = load ptr, ptr %5, align 8, !tbaa !51
  %21 = load ptr, ptr %6, align 8, !tbaa !31
  %22 = getelementptr inbounds nuw %struct.AVCodecInternal, ptr %21, i32 0, i32 19
  %23 = load ptr, ptr %22, align 8, !tbaa !96
  call void @av_frame_move_ref(ptr noundef %20, ptr noundef %23)
  br label %33

24:                                               ; preds = %2
  %25 = load ptr, ptr %4, align 8, !tbaa !4
  %26 = load ptr, ptr %5, align 8, !tbaa !51
  %27 = call i32 @decode_receive_frame_internal(ptr noundef %25, ptr noundef %26)
  store i32 %27, ptr %7, align 4, !tbaa !41
  %28 = load i32, ptr %7, align 4, !tbaa !41
  %29 = icmp slt i32 %28, 0
  br i1 %29, label %30, label %32

30:                                               ; preds = %24
  %31 = load i32, ptr %7, align 4, !tbaa !41
  store i32 %31, ptr %3, align 4
  store i32 1, ptr %8, align 4
  br label %61

32:                                               ; preds = %24
  br label %33

33:                                               ; preds = %32, %19
  %34 = load ptr, ptr %4, align 8, !tbaa !4
  %35 = load ptr, ptr %5, align 8, !tbaa !51
  %36 = call i32 @frame_validate(ptr noundef %34, ptr noundef %35)
  store i32 %36, ptr %7, align 4, !tbaa !41
  %37 = load i32, ptr %7, align 4, !tbaa !41
  %38 = icmp slt i32 %37, 0
  br i1 %38, label %39, label %40

39:                                               ; preds = %33
  br label %58

40:                                               ; preds = %33
  %41 = load ptr, ptr %4, align 8, !tbaa !4
  %42 = getelementptr inbounds nuw %struct.AVCodecContext, ptr %41, i32 0, i32 2
  %43 = load i32, ptr %42, align 4, !tbaa !98
  %44 = icmp eq i32 %43, 0
  br i1 %44, label %45, label %53

45:                                               ; preds = %40
  %46 = load ptr, ptr %4, align 8, !tbaa !4
  %47 = load ptr, ptr %5, align 8, !tbaa !51
  %48 = call i32 @apply_cropping(ptr noundef %46, ptr noundef %47)
  store i32 %48, ptr %7, align 4, !tbaa !41
  %49 = load i32, ptr %7, align 4, !tbaa !41
  %50 = icmp slt i32 %49, 0
  br i1 %50, label %51, label %52

51:                                               ; preds = %45
  br label %58

52:                                               ; preds = %45
  br label %53

53:                                               ; preds = %52, %40
  %54 = load ptr, ptr %4, align 8, !tbaa !4
  %55 = getelementptr inbounds nuw %struct.AVCodecContext, ptr %54, i32 0, i32 146
  %56 = load i64, ptr %55, align 8, !tbaa !110
  %57 = add nsw i64 %56, 1
  store i64 %57, ptr %55, align 8, !tbaa !110
  store i32 0, ptr %3, align 4
  store i32 1, ptr %8, align 4
  br label %61

58:                                               ; preds = %51, %39
  %59 = load ptr, ptr %5, align 8, !tbaa !51
  call void @av_frame_unref(ptr noundef %59)
  %60 = load i32, ptr %7, align 4, !tbaa !41
  store i32 %60, ptr %3, align 4
  store i32 1, ptr %8, align 4
  br label %61

61:                                               ; preds = %58, %53, %30
  call void @llvm.lifetime.end.p0(i64 4, ptr %7) #11
  call void @llvm.lifetime.end.p0(i64 8, ptr %6) #11
  %62 = load i32, ptr %3, align 4
  ret i32 %62
}