; Function Attrs: nounwind uwtable
define range(i32 -2147483648, 1) i32 @ff_decode_receive_frame(ptr noundef %0, ptr noundef %1) local_unnamed_addr #0 {
  %3 = getelementptr inbounds nuw i8, ptr %0, i64 40
  %4 = load ptr, ptr %3, align 8, !tbaa !4
  %5 = getelementptr inbounds nuw i8, ptr %4, i64 136
  %6 = load ptr, ptr %5, align 8, !tbaa !91
  %7 = getelementptr inbounds nuw i8, ptr %6, i64 184
  %8 = load ptr, ptr %7, align 8, !tbaa !56
  %.not = icmp eq ptr %8, null
  br i1 %.not, label %10, label %9

9:                                                ; preds = %2
  tail call void @av_frame_move_ref(ptr noundef %1, ptr noundef nonnull %6) #10
  br label %13

10:                                               ; preds = %2
  %11 = tail call fastcc i32 @decode_receive_frame_internal(ptr noundef nonnull %0, ptr noundef %1)
  %12 = icmp slt i32 %11, 0
  br i1 %12, label %76, label %13

13:                                               ; preds = %10, %9
  %14 = getelementptr inbounds nuw i8, ptr %1, i64 184
  %15 = load ptr, ptr %14, align 8, !tbaa !56
  %.not.i = icmp eq ptr %15, null
  br i1 %.not.i, label %frame_validate.exit, label %16

16:                                               ; preds = %13
  %17 = getelementptr inbounds nuw i8, ptr %1, i64 116
  %18 = load i32, ptr %17, align 4, !tbaa !87
  %19 = icmp slt i32 %18, 0
  br i1 %19, label %frame_validate.exit, label %20

20:                                               ; preds = %16
  %21 = getelementptr inbounds nuw i8, ptr %0, i64 12
  %22 = load i32, ptr %21, align 4, !tbaa !92
  switch i32 %22, label %38 [
    i32 0, label %23
    i32 1, label %31
  ]

23:                                               ; preds = %20
  %24 = getelementptr inbounds nuw i8, ptr %1, i64 104
  %25 = load i32, ptr %24, align 8, !tbaa !93
  %26 = icmp slt i32 %25, 1
  br i1 %26, label %frame_validate.exit, label %27

27:                                               ; preds = %23
  %28 = getelementptr inbounds nuw i8, ptr %1, i64 108
  %29 = load i32, ptr %28, align 4, !tbaa !94
  %30 = icmp slt i32 %29, 1
  br i1 %30, label %frame_validate.exit, label %.thread

31:                                               ; preds = %20
  %32 = getelementptr inbounds nuw i8, ptr %1, i64 384
  %33 = tail call i32 @av_channel_layout_check(ptr noundef nonnull %32) #10
  %.not8.i = icmp eq i32 %33, 0
  br i1 %.not8.i, label %frame_validate.exit, label %34

34:                                               ; preds = %31
  %35 = getelementptr inbounds nuw i8, ptr %1, i64 180
  %36 = load i32, ptr %35, align 4, !tbaa !103
  %37 = icmp slt i32 %36, 1
  br i1 %37, label %frame_validate.exit, label %39

38:                                               ; preds = %20
  tail call void (ptr, i32, ptr, ...) @av_log(ptr noundef null, i32 noundef 0, ptr noundef nonnull @.str, ptr noundef nonnull @.str.44, ptr noundef nonnull @.str.2, i32 noundef 781) #10
  tail call void @abort() #11
  unreachable

frame_validate.exit:                              ; preds = %13, %16, %23, %27, %31, %34
  tail call void (ptr, i32, ptr, ...) @av_log(ptr noundef nonnull %0, i32 noundef 16, ptr noundef nonnull @.str.49) #10
  br label %75

39:                                               ; preds = %34
  %.pre = load i32, ptr %21, align 4, !tbaa !92
  %40 = icmp eq i32 %.pre, 0
  br i1 %40, label %.thread, label %apply_cropping.exit.thread

.thread:                                          ; preds = %27, %39
  %41 = getelementptr inbounds nuw i8, ptr %1, i64 360
  %42 = load i64, ptr %41, align 8, !tbaa !104
  %43 = getelementptr inbounds nuw i8, ptr %1, i64 368
  %44 = load i64, ptr %43, align 8, !tbaa !105
  %45 = sub i64 2147483647, %44
  %.not.i22 = icmp ult i64 %42, %45
  %46 = getelementptr inbounds nuw i8, ptr %1, i64 344
  %47 = load i64, ptr %46, align 8, !tbaa !106
  %48 = getelementptr inbounds nuw i8, ptr %1, i64 352
  %49 = load i64, ptr %48, align 8, !tbaa !107
  %50 = sub i64 2147483647, %49
  %.not26.i = icmp ult i64 %47, %50
  %or.cond.i = select i1 %.not.i22, i1 %.not26.i, i1 false
  br i1 %or.cond.i, label %51, label %.._crit_edge.i_crit_edge

.._crit_edge.i_crit_edge:                         ; preds = %.thread
  %.phi.trans.insert = getelementptr inbounds nuw i8, ptr %1, i64 104
  %.pre26 = load i32, ptr %.phi.trans.insert, align 8, !tbaa !93
  br label %._crit_edge.i

51:                                               ; preds = %.thread
  %52 = add i64 %44, %42
  %53 = getelementptr inbounds nuw i8, ptr %1, i64 104
  %54 = load i32, ptr %53, align 8, !tbaa !93
  %55 = sext i32 %54 to i64
  %.not27.i = icmp ult i64 %52, %55
  br i1 %.not27.i, label %56, label %._crit_edge.i

56:                                               ; preds = %51
  %57 = add i64 %49, %47
  %58 = getelementptr inbounds nuw i8, ptr %1, i64 108
  %59 = load i32, ptr %58, align 4, !tbaa !94
  %60 = sext i32 %59 to i64
  %.not28.i = icmp ult i64 %57, %60
  br i1 %.not28.i, label %64, label %._crit_edge.i

._crit_edge.i:                                    ; preds = %.._crit_edge.i_crit_edge, %56, %51
  %61 = phi i32 [ %.pre26, %.._crit_edge.i_crit_edge ], [ %54, %56 ], [ %54, %51 ]
  %62 = getelementptr inbounds nuw i8, ptr %1, i64 108
  %63 = load i32, ptr %62, align 4, !tbaa !94
  tail call void (ptr, i32, ptr, ...) @av_log(ptr noundef nonnull %0, i32 noundef 24, ptr noundef nonnull @.str.50, i64 noundef %42, i64 noundef %44, i64 noundef %47, i64 noundef %49, i32 noundef %61, i32 noundef %63) #10
  tail call void @llvm.memset.p0.i64(ptr noundef nonnull align 8 dereferenceable(32) %46, i8 0, i64 32, i1 false)
  br label %apply_cropping.exit.thread

64:                                               ; preds = %56
  %65 = getelementptr inbounds nuw i8, ptr %0, i64 800
  %66 = load i32, ptr %65, align 8, !tbaa !108
  %.not29.i = icmp eq i32 %66, 0
  br i1 %.not29.i, label %apply_cropping.exit.thread, label %apply_cropping.exit

apply_cropping.exit:                              ; preds = %64
  %67 = getelementptr inbounds nuw i8, ptr %0, i64 64
  %68 = load i32, ptr %67, align 8, !tbaa !109
  %69 = and i32 %68, 1
  %70 = tail call i32 @av_frame_apply_cropping(ptr noundef nonnull %1, i32 noundef %69) #10
  %71 = icmp slt i32 %70, 0
  br i1 %71, label %75, label %apply_cropping.exit.thread

apply_cropping.exit.thread:                       ; preds = %64, %._crit_edge.i, %apply_cropping.exit, %39
  %72 = getelementptr inbounds nuw i8, ptr %0, i64 824
  %73 = load i64, ptr %72, align 8, !tbaa !110
  %74 = add nsw i64 %73, 1
  store i64 %74, ptr %72, align 8, !tbaa !110
  br label %76

75:                                               ; preds = %frame_validate.exit, %apply_cropping.exit
  %.0 = phi i32 [ -558323010, %frame_validate.exit ], [ %70, %apply_cropping.exit ]
  tail call void @av_frame_unref(ptr noundef nonnull %1) #10
  br label %76

76:                                               ; preds = %10, %75, %apply_cropping.exit.thread
  %.018 = phi i32 [ %.0, %75 ], [ 0, %apply_cropping.exit.thread ], [ %11, %10 ]
  ret i32 %.018
}